; Function Attrs: mustprogress uwtable
define noundef i32 @_ZN6icu_7728DataBuilderCollationIterator13nextCodePointER10UErrorCode(ptr noundef nonnull align 8 captures(none) dereferenceable(828) %0, ptr nonnull readnone align 4 captures(none) %1) unnamed_addr #6 align 2 {
  %3 = getelementptr inbounds nuw i8, ptr %0, i64 824
  %4 = load i32, ptr %3, align 8, !tbaa !62
  %5 = getelementptr inbounds nuw i8, ptr %0, i64 816
  %6 = load ptr, ptr %5, align 8, !tbaa !59
  %7 = getelementptr inbounds nuw i8, ptr %6, i64 8
  %8 = load i16, ptr %7, align 8, !tbaa !74
  %9 = icmp slt i16 %8, 0
  %10 = ashr i16 %8, 5
  %11 = sext i16 %10 to i32
  %12 = getelementptr inbounds nuw i8, ptr %6, i64 12
  %13 = load i32, ptr %12, align 4
  %14 = select i1 %9, i32 %13, i32 %11
  %15 = icmp eq i32 %4, %14
  br i1 %15, label %22, label %16

16:                                               ; preds = %2
  %17 = tail call noundef i32 @_ZNK6icu_7713UnicodeString8char32AtEi(ptr noundef nonnull align 8 dereferenceable(64) %6, i32 noundef %4)
  %18 = icmp ult i32 %17, 65536
  %19 = select i1 %18, i32 1, i32 2
  %20 = load i32, ptr %3, align 8, !tbaa !62
  %21 = add nsw i32 %19, %20
  store i32 %21, ptr %3, align 8, !tbaa !62
  br label %22

22:                                               ; preds = %2, %16
  %.0 = phi i32 [ %17, %16 ], [ -1, %2 ]
  ret i32 %.0
}